; ModuleID = '49/1156.c'
source_filename = "49/1156.c"
target datalayout = "e-m:e-p270:32:32-p271:32:32-p272:64:64-i64:64-f80:128-n8:16:32:64-S128"
target triple = "x86_64-pc-linux-gnu"

@.str = private unnamed_addr constant [3 x i8] c"%s\00", align 1
@.str.1 = private unnamed_addr constant [3 x i8] c"%c\00", align 1
@.str.2 = private unnamed_addr constant [4 x i8] c"%c\0A\00", align 1

; Function Attrs: noinline nounwind uwtable
define dso_local i32 @main() #0 {
  %1 = alloca i32, align 4
  %2 = alloca [100000 x i8], align 16
  %3 = alloca [1000 x i8], align 16
  %4 = alloca i32, align 4
  %5 = alloca i32, align 4
  %6 = alloca i32, align 4
  %7 = alloca i32, align 4
  %8 = alloca i32, align 4
  %9 = alloca i32, align 4
  store i32 0, i32* %1, align 4
  %10 = call i32 (i8*, ...) @__isoc99_scanf(i8* getelementptr inbounds ([3 x i8], [3 x i8]* @.str, i64 0, i64 0), [100000 x i8]* %2)
  %11 = getelementptr inbounds [100000 x i8], [100000 x i8]* %2, i64 0, i64 0
  %12 = call i64 @strlen(i8* %11) #3
  %13 = trunc i64 %12 to i32
  store i32 %13, i32* %4, align 4
  store i32 1, i32* %5, align 4
  br label %14

14:                                               ; preds = %88, %0
  %15 = load i32, i32* %5, align 4
  %16 = load i32, i32* %4, align 4
  %17 = sub nsw i32 %16, 1
  %18 = icmp slt i32 %15, %17
  br i1 %18, label %19, label %91

19:                                               ; preds = %14
  store i32 0, i32* %6, align 4
  br label %20

20:                                               ; preds = %84, %19
  %21 = load i32, i32* %6, align 4
  %22 = load i32, i32* %4, align 4
  %23 = icmp slt i32 %21, %22
  br i1 %23, label %24, label %87

24:                                               ; preds = %20
  %25 = load i32, i32* %6, align 4
  %26 = load i32, i32* %5, align 4
  %27 = add nsw i32 %25, %26
  store i32 %27, i32* %7, align 4
  %28 = load i32, i32* %6, align 4
  store i32 %28, i32* %8, align 4
  br label %29

29:                                               ; preds = %48, %24
  %30 = load i32, i32* %8, align 4
  %31 = sext i32 %30 to i64
  %32 = getelementptr inbounds [100000 x i8], [100000 x i8]* %2, i64 0, i64 %31
  %33 = load i8, i8* %32, align 1
  %34 = sext i8 %33 to i32
  %35 = load i32, i32* %7, align 4
  %36 = sext i32 %35 to i64
  %37 = getelementptr inbounds [100000 x i8], [100000 x i8]* %2, i64 0, i64 %36
  %38 = load i8, i8* %37, align 1
  %39 = sext i8 %38 to i32
  %40 = icmp eq i32 %34, %39
  br i1 %40, label %41, label %46

41:                                               ; preds = %29
  %42 = load i32, i32* %7, align 4
  %43 = sub nsw i32 %42, 1
  store i32 %43, i32* %7, align 4
  %44 = load i32, i32* %8, align 4
  %45 = add nsw i32 %44, 1
  store i32 %45, i32* %8, align 4
  br label %47

46:                                               ; preds = %29
  br label %52

47:                                               ; preds = %41
  br label %48

48:                                               ; preds = %47
  %49 = load i32, i32* %7, align 4
  %50 = load i32, i32* %8, align 4
  %51 = icmp sgt i32 %49, %50
  br i1 %51, label %29, label %52

52:                                               ; preds = %48, %46
  %53 = load i32, i32* %7, align 4
  %54 = load i32, i32* %8, align 4
  %55 = icmp sle i32 %53, %54
  br i1 %55, label %56, label %83

56:                                               ; preds = %52
  %57 = load i32, i32* %6, align 4
  store i32 %57, i32* %9, align 4
  br label %58

58:                                               ; preds = %71, %56
  %59 = load i32, i32* %9, align 4
  %60 = load i32, i32* %6, align 4
  %61 = load i32, i32* %5, align 4
  %62 = add nsw i32 %60, %61
  %63 = icmp slt i32 %59, %62
  br i1 %63, label %64, label %74

64:                                               ; preds = %58
  %65 = load i32, i32* %9, align 4
  %66 = sext i32 %65 to i64
  %67 = getelementptr inbounds [100000 x i8], [100000 x i8]* %2, i64 0, i64 %66
  %68 = load i8, i8* %67, align 1
  %69 = sext i8 %68 to i32
  %70 = call i32 (i8*, ...) @printf(i8* getelementptr inbounds ([3 x i8], [3 x i8]* @.str.1, i64 0, i64 0), i32 %69)
  br label %71

71:                                               ; preds = %64
  %72 = load i32, i32* %9, align 4
  %73 = add nsw i32 %72, 1
  store i32 %73, i32* %9, align 4
  br label %58

74:                                               ; preds = %58
  %75 = load i32, i32* %6, align 4
  %76 = load i32, i32* %5, align 4
  %77 = add nsw i32 %75, %76
  %78 = sext i32 %77 to i64
  %79 = getelementptr inbounds [100000 x i8], [100000 x i8]* %2, i64 0, i64 %78
  %80 = load i8, i8* %79, align 1
  %81 = sext i8 %80 to i32
  %82 = call i32 (i8*, ...) @printf(i8* getelementptr inbounds ([4 x i8], [4 x i8]* @.str.2, i64 0, i64 0), i32 %81)
  br label %83

83:                                               ; preds = %74, %52
  br label %84

84:                                               ; preds = %83
  %85 = load i32, i32* %6, align 4
  %86 = add nsw i32 %85, 1
  store i32 %86, i32* %6, align 4
  br label %20

87:                                               ; preds = %20
  br label %88

88:                                               ; preds = %87
  %89 = load i32, i32* %5, align 4
  %90 = add nsw i32 %89, 1
  store i32 %90, i32* %5, align 4
  br label %14

91:                                               ; preds = %14
  ret i32 0
}

declare dso_local i32 @__isoc99_scanf(i8*, ...) #1

; Function Attrs: nounwind readonly
declare dso_local i64 @strlen(i8*) #2

declare dso_local i32 @printf(i8*, ...) #1


!llvm.module.flags = !{!0}
!llvm.ident = !{!1}

!0 = !{i32 1, !"wchar_size", i32 4}
!1 = !{!"clang version 10.0.0-4ubuntu1 "}
